; Function Attrs: null_pointer_is_valid sspstrong uwtable
define range(i32 -6, 1) i32 @wtap_block_add_packet_hash_option(ptr noundef readonly captures(address_is_null) %0, i32 noundef %1, ptr noundef readonly captures(none) %2) local_unnamed_addr #0 {
  %4 = icmp eq ptr %0, null
  br i1 %4, label %wtap_block_add_option_common.exit.thread, label %5

5:                                                ; preds = %3
  %6 = load ptr, ptr %0, align 8
  %7 = getelementptr inbounds nuw i8, ptr %6, i64 48
  %8 = load ptr, ptr %7, align 8
  %9 = zext i32 %1 to i64
  %10 = inttoptr i64 %9 to ptr
  %11 = tail call ptr @g_hash_table_lookup(ptr noundef %8, ptr noundef %10)
  %12 = icmp eq ptr %11, null
  br i1 %12, label %wtap_block_add_option_common.exit.thread, label %13

13:                                               ; preds = %5
  %14 = getelementptr inbounds nuw i8, ptr %11, i64 16
  %15 = load i32, ptr %14, align 8
  %.not.i = icmp eq i32 %15, 10
  br i1 %.not.i, label %16, label %wtap_block_add_option_common.exit.thread

16:                                               ; preds = %13
  %17 = getelementptr inbounds nuw i8, ptr %11, i64 20
  %18 = load i32, ptr %17, align 4
  %19 = and i32 %18, 1
  %.not20.i = icmp eq i32 %19, 0
  %20 = getelementptr inbounds nuw i8, ptr %0, i64 16
  %21 = load ptr, ptr %20, align 8
  %22 = getelementptr inbounds nuw i8, ptr %21, i64 8
  %23 = load i32, ptr %22, align 8
  br i1 %.not20.i, label %24, label %.loopexit

24:                                               ; preds = %16
  %.not.i.i = icmp eq i32 %23, 0
  br i1 %.not.i.i, label %.loopexit, label %.lr.ph.i.i

.lr.ph.i.i:                                       ; preds = %24
  %25 = load ptr, ptr %21, align 8
  %wide.trip.count.i.i = zext i32 %23 to i64
  br label %27

26:                                               ; preds = %27
  %indvars.iv.next.i.i = add nuw nsw i64 %indvars.iv.i.i, 1
  %exitcond.not.i.i = icmp eq i64 %indvars.iv.next.i.i, %wide.trip.count.i.i
  br i1 %exitcond.not.i.i, label %.loopexit, label %27, !llvm.loop !11

27:                                               ; preds = %26, %.lr.ph.i.i
  %indvars.iv.i.i = phi i64 [ 0, %.lr.ph.i.i ], [ %indvars.iv.next.i.i, %26 ]
  %28 = getelementptr %struct.wtap_option_t, ptr %25, i64 %indvars.iv.i.i
  %29 = load i32, ptr %28, align 8
  %30 = icmp eq i32 %29, %1
  br i1 %30, label %wtap_block_add_option_common.exit.thread, label %26

.loopexit:                                        ; preds = %26, %24, %16
  %31 = phi i32 [ 0, %24 ], [ %23, %16 ], [ %23, %26 ]
  %32 = add i32 %31, 1
  %33 = tail call ptr @g_array_set_size(ptr noundef %21, i32 noundef %32)
  %34 = load ptr, ptr %20, align 8
  %35 = load ptr, ptr %34, align 8
  %36 = zext i32 %31 to i64
  %37 = getelementptr %struct.wtap_option_t, ptr %35, i64 %36
  store i32 %1, ptr %37, align 8
  %38 = getelementptr inbounds nuw i8, ptr %37, i64 8
  %39 = load i8, ptr %2, align 8
  %40 = getelementptr inbounds nuw i8, ptr %2, i64 8
  %41 = load ptr, ptr %40, align 8
  %42 = load ptr, ptr %41, align 8
  %43 = getelementptr inbounds nuw i8, ptr %41, i64 8
  %44 = load i32, ptr %43, align 8
  %45 = zext i32 %44 to i64
  %46 = tail call ptr @g_memdup2(ptr noundef %42, i64 noundef %45) #18
  %47 = load ptr, ptr %40, align 8
  %48 = getelementptr inbounds nuw i8, ptr %47, i64 8
  %49 = load i32, ptr %48, align 8
  %50 = zext i32 %49 to i64
  %51 = tail call ptr @g_byte_array_new_take(ptr noundef %46, i64 noundef %50)
  store i8 %39, ptr %38, align 8
  %.sroa.41.0..sroa_idx = getelementptr inbounds nuw i8, ptr %37, i64 16
  store ptr %51, ptr %.sroa.41.0..sroa_idx, align 8
  br label %wtap_block_add_option_common.exit.thread

wtap_block_add_option_common.exit.thread:         ; preds = %27, %13, %5, %3, %.loopexit
  %.0 = phi i32 [ 0, %.loopexit ], [ -3, %13 ], [ -1, %5 ], [ -6, %3 ], [ -5, %27 ]
  ret i32 %.0
}